(iHitEx.dataset
Dataset
p1
(dp2
S'info'
p3
(dp4
S'Nr tokens'
p5
I1
sS'Nr instances'
p6
I1
sS'Nr tokens per level'
p7
(dp8
S'B1'
p9
I3
ssS'Item amount'
p10
S'all'
p11
sS'Type of items'
p12
S'single_text'
p13
sS'Nr of items per level'
p14
(dp15
g9
(dp16
S'unknown'
p17
I1
ssssS'analysis_level'
p18
g13
sS'dset_path'
p19
S'/Library/WebServer/CGI-Executables/trunk/HitEx/datasets/'
p20
sS'nr_tokens'
p21
I1
sS'items'
p22
(lp23
(iHitEx.ling_units
Text
p24
(dp25
S'text_id'
p26
S''
sS'title'
p27
S'*no title*'
p28
sS'level'
p29
g9
sS'length'
p30
I1
sS'book'
p31
g17
sS'length_in_tokens'
p32
I3
sS'text_topic'
p33
S'*no topic*'
p34
sS'sents'
p35
(lp36
(iHitEx.ling_units
Sentence
p37
(dp38
g29
g9
sS'sent_id'
p39
S'8f7-879'
p40
sg30
I3
sg31
S''
sS'words'
p41
S'God jul !'
p42
sS'nodes'
p43
(lp44
(iHitEx.ling_units
Token
p45
(dp46
S'dephead'
p47
(iHitEx.ling_units
Token
p48
(dp49
g47
g45
sS'word'
p50
S'jul'
p51
sS'suffix'
p52
(lp53
sS'pos'
p54
S'NN'
p55
sS'depheadid'
p56
S''
sS'lemma'
p57
(lp58
S'jul'
p59
aS'God Jul'
p60
aS'god jul'
p61
asS'saldo'
p62
(lp63
S'jul..1'
p64
aS'god_jul..1'
p65
asS'deps'
p66
(lp67
g45
a(iHitEx.ling_units
Token
p68
(dp69
g47
g48
sg50
S'!'
sg52
(lp70
sg54
S'MAD'
p71
sg56
S'2'
sg57
(lp72
sg62
(lp73
sg66
(lp74
sS'lex'
p75
(lp76
sg30
I1
sS'msd'
p77
S'MAD'
p78
sS'ref'
p79
S'3'
sS'deprel'
p80
S'IU'
p81
sbasg75
(lp82
S'jul..nn.1'
p83
aS'God_Jul..inm.1'
p84
aS'god_jul..inm.1'
p85
asg30
I3
sg77
S'NN.UTR.SIN.IND.NOM'
p86
sg79
S'2'
sg80
S'ROOT'
p87
sbsg50
S'God'
p88
sg52
(lp89
sg54
S'JJ'
p90
sg56
S'2'
sg57
(lp91
S'god'
p92
aS'God Jul'
p93
aS'god jul'
p94
asg62
(lp95
S'god..1'
p96
aS'god..2'
p97
aS'god..3'
p98
aS'god_jul..1'
p99
asg66
(lp100
g48
asg75
(lp101
S'god..av.1'
p102
aS'God_Jul..inm.1'
p103
aS'god_jul..inm.1'
p104
asg30
I3
sg77
S'JJ.POS.UTR.SIN.IND.NOM'
p105
sg79
S'1'
sg80
S'AT'
p106
sbag48
ag68
asS'bug'
p107
I00
sbasS'text_genre'
p108
S''
sbasS'dset_type'
p109
g11
sS'nr_items'
p110
I1
sS'nr_tokens_per_level'
p111
g8
sS'nr_items_detailed'
p112
g15
sb.